target datalayout = "e-m:e-p270:32:32-p271:32:32-p272:64:64-i64:64-i128:128-f80:128-n8:16:32:64-S128"
target triple = "x86_64-pc-linux-gnu"

%struct.mbedtls_x509_time = type { i32, i32, i32, i32, i32, i32 }
%struct.tm = type { i32, i32, i32, i32, i32, i32, i32, i32, i32, i64, ptr }

; Function Attrs: nounwind uwtable
define hidden i32 @mbedtls_x509_time_gmtime(i64 noundef %0, ptr noundef %1) #0 {
  %3 = alloca i32, align 4
  %4 = alloca i64, align 8
  %5 = alloca ptr, align 8
  %6 = alloca %struct.tm, align 8
  %7 = alloca i32, align 4
  store i64 %0, ptr %4, align 8, !tbaa !24
  store ptr %1, ptr %5, align 8, !tbaa !30
  call void @llvm.lifetime.start.p0(i64 56, ptr %6) #9
  %8 = call ptr @mbedtls_platform_gmtime_r(ptr noundef %4, ptr noundef %6)
  %9 = icmp eq ptr %8, null
  br i1 %9, label %10, label %11

10:                                               ; preds = %2
  store i32 -1, ptr %3, align 4
  store i32 1, ptr %7, align 4
  br label %38

11:                                               ; preds = %2
  %12 = getelementptr inbounds nuw %struct.tm, ptr %6, i32 0, i32 5
  %13 = load i32, ptr %12, align 4, !tbaa !55
  %14 = add nsw i32 %13, 1900
  %15 = load ptr, ptr %5, align 8, !tbaa !30
  %16 = getelementptr inbounds nuw %struct.mbedtls_x509_time, ptr %15, i32 0, i32 0
  store i32 %14, ptr %16, align 4, !tbaa !32
  %17 = getelementptr inbounds nuw %struct.tm, ptr %6, i32 0, i32 4
  %18 = load i32, ptr %17, align 8, !tbaa !57
  %19 = add nsw i32 %18, 1
  %20 = load ptr, ptr %5, align 8, !tbaa !30
  %21 = getelementptr inbounds nuw %struct.mbedtls_x509_time, ptr %20, i32 0, i32 1
  store i32 %19, ptr %21, align 4, !tbaa !34
  %22 = getelementptr inbounds nuw %struct.tm, ptr %6, i32 0, i32 3
  %23 = load i32, ptr %22, align 4, !tbaa !58
  %24 = load ptr, ptr %5, align 8, !tbaa !30
  %25 = getelementptr inbounds nuw %struct.mbedtls_x509_time, ptr %24, i32 0, i32 2
  store i32 %23, ptr %25, align 4, !tbaa !35
  %26 = getelementptr inbounds nuw %struct.tm, ptr %6, i32 0, i32 2
  %27 = load i32, ptr %26, align 8, !tbaa !59
  %28 = load ptr, ptr %5, align 8, !tbaa !30
  %29 = getelementptr inbounds nuw %struct.mbedtls_x509_time, ptr %28, i32 0, i32 3
  store i32 %27, ptr %29, align 4, !tbaa !36
  %30 = getelementptr inbounds nuw %struct.tm, ptr %6, i32 0, i32 1
  %31 = load i32, ptr %30, align 4, !tbaa !60
  %32 = load ptr, ptr %5, align 8, !tbaa !30
  %33 = getelementptr inbounds nuw %struct.mbedtls_x509_time, ptr %32, i32 0, i32 4
  store i32 %31, ptr %33, align 4, !tbaa !37
  %34 = getelementptr inbounds nuw %struct.tm, ptr %6, i32 0, i32 0
  %35 = load i32, ptr %34, align 8, !tbaa !61
  %36 = load ptr, ptr %5, align 8, !tbaa !30
  %37 = getelementptr inbounds nuw %struct.mbedtls_x509_time, ptr %36, i32 0, i32 5
  store i32 %35, ptr %37, align 4, !tbaa !38
  store i32 0, ptr %3, align 4
  store i32 1, ptr %7, align 4
  br label %38

38:                                               ; preds = %11, %10
  call void @llvm.lifetime.end.p0(i64 56, ptr %6) #9
  %39 = load i32, ptr %3, align 4
  ret i32 %39
}