; Function Attrs: nounwind uwtable
define hidden range(i32 -1, 1) i32 @mbedtls_x509_time_gmtime(i64 noundef %0, ptr noundef writeonly captures(none) %1) local_unnamed_addr #0 {
  %3 = alloca i64, align 8
  %4 = alloca %struct.tm, align 8
  store i64 %0, ptr %3, align 8, !tbaa !16
  call void @llvm.lifetime.start.p0(i64 56, ptr nonnull %4) #13
  %5 = call ptr @mbedtls_platform_gmtime_r(ptr noundef nonnull %3, ptr noundef nonnull %4) #13
  %6 = icmp eq ptr %5, null
  br i1 %6, label %26, label %7

7:                                                ; preds = %2
  %8 = getelementptr inbounds nuw i8, ptr %4, i64 20
  %9 = load i32, ptr %8, align 4, !tbaa !42
  %10 = add nsw i32 %9, 1900
  store i32 %10, ptr %1, align 4, !tbaa !21
  %11 = getelementptr inbounds nuw i8, ptr %4, i64 16
  %12 = load i32, ptr %11, align 8, !tbaa !44
  %13 = add nsw i32 %12, 1
  %14 = getelementptr inbounds nuw i8, ptr %1, i64 4
  store i32 %13, ptr %14, align 4, !tbaa !23
  %15 = getelementptr inbounds nuw i8, ptr %4, i64 12
  %16 = load i32, ptr %15, align 4, !tbaa !45
  %17 = getelementptr inbounds nuw i8, ptr %1, i64 8
  store i32 %16, ptr %17, align 4, !tbaa !24
  %18 = getelementptr inbounds nuw i8, ptr %4, i64 8
  %19 = load i32, ptr %18, align 8, !tbaa !46
  %20 = getelementptr inbounds nuw i8, ptr %1, i64 12
  store i32 %19, ptr %20, align 4, !tbaa !25
  %21 = getelementptr inbounds nuw i8, ptr %4, i64 4
  %22 = load i32, ptr %21, align 4, !tbaa !47
  %23 = getelementptr inbounds nuw i8, ptr %1, i64 16
  store i32 %22, ptr %23, align 4, !tbaa !26
  %24 = load i32, ptr %4, align 8, !tbaa !48
  %25 = getelementptr inbounds nuw i8, ptr %1, i64 20
  store i32 %24, ptr %25, align 4, !tbaa !27
  br label %26

26:                                               ; preds = %2, %7
  %.0 = phi i32 [ 0, %7 ], [ -1, %2 ]
  call void @llvm.lifetime.end.p0(i64 56, ptr nonnull %4) #13
  ret i32 %.0
}